; ModuleID = '54/454.c'
source_filename = "54/454.c"
target datalayout = "e-m:e-p270:32:32-p271:32:32-p272:64:64-i64:64-f80:128-n8:16:32:64-S128"
target triple = "x86_64-pc-linux-gnu"

@.str = private unnamed_addr constant [6 x i8] c"%d %d\00", align 1
@.str.1 = private unnamed_addr constant [4 x i8] c"%d\0A\00", align 1

; Function Attrs: noinline nounwind uwtable
define dso_local void @main() #0 {
  %1 = alloca i32, align 4
  %2 = alloca i32, align 4
  %3 = alloca i32, align 4
  %4 = alloca i32, align 4
  %5 = alloca i32, align 4
  %6 = alloca i32, align 4
  %7 = alloca i32, align 4
  store i32 1, i32* %3, align 4
  store i32 1, i32* %7, align 4
  %8 = call i32 (i8*, ...) @__isoc99_scanf(i8* getelementptr inbounds ([6 x i8], [6 x i8]* @.str, i64 0, i64 0), i32* %1, i32* %2)
  store i32 1, i32* %4, align 4
  br label %9

9:                                                ; preds = %59, %0
  %10 = load i32, i32* %4, align 4
  %11 = icmp sle i32 %10, 100000000
  br i1 %11, label %12, label %62

12:                                               ; preds = %9
  %13 = load i32, i32* %4, align 4
  store i32 %13, i32* %3, align 4
  store i32 1, i32* %6, align 4
  store i32 1, i32* %5, align 4
  br label %14

14:                                               ; preds = %40, %12
  %15 = load i32, i32* %6, align 4
  %16 = load i32, i32* %1, align 4
  %17 = sub nsw i32 %16, 1
  %18 = icmp sle i32 %15, %17
  br i1 %18, label %19, label %43

19:                                               ; preds = %14
  %20 = load i32, i32* %3, align 4
  %21 = load i32, i32* %1, align 4
  %22 = mul nsw i32 %20, %21
  %23 = load i32, i32* %2, align 4
  %24 = add nsw i32 %22, %23
  %25 = load i32, i32* %1, align 4
  %26 = sub nsw i32 %25, 1
  %27 = srem i32 %24, %26
  %28 = icmp eq i32 %27, 0
  br i1 %28, label %29, label %38

29:                                               ; preds = %19
  %30 = load i32, i32* %3, align 4
  %31 = load i32, i32* %1, align 4
  %32 = mul nsw i32 %30, %31
  %33 = load i32, i32* %2, align 4
  %34 = add nsw i32 %32, %33
  %35 = load i32, i32* %1, align 4
  %36 = sub nsw i32 %35, 1
  %37 = sdiv i32 %34, %36
  store i32 %37, i32* %3, align 4
  br label %39

38:                                               ; preds = %19
  store i32 0, i32* %5, align 4
  br label %39

39:                                               ; preds = %38, %29
  br label %40

40:                                               ; preds = %39
  %41 = load i32, i32* %6, align 4
  %42 = add nsw i32 %41, 1
  store i32 %42, i32* %6, align 4
  br label %14

43:                                               ; preds = %14
  %44 = load i32, i32* %5, align 4
  %45 = icmp ne i32 %44, 0
  br i1 %45, label %46, label %54

46:                                               ; preds = %43
  %47 = load i32, i32* %3, align 4
  %48 = load i32, i32* %1, align 4
  %49 = mul nsw i32 %47, %48
  %50 = load i32, i32* %2, align 4
  %51 = add nsw i32 %49, %50
  store i32 %51, i32* %3, align 4
  %52 = load i32, i32* %3, align 4
  %53 = call i32 (i8*, ...) @printf(i8* getelementptr inbounds ([4 x i8], [4 x i8]* @.str.1, i64 0, i64 0), i32 %52)
  store i32 0, i32* %7, align 4
  br label %54

54:                                               ; preds = %46, %43
  %55 = load i32, i32* %7, align 4
  %56 = icmp eq i32 %55, 0
  br i1 %56, label %57, label %58

57:                                               ; preds = %54
  br label %62

58:                                               ; preds = %54
  br label %59

59:                                               ; preds = %58
  %60 = load i32, i32* %4, align 4
  %61 = add nsw i32 %60, 1
  store i32 %61, i32* %4, align 4
  br label %9

62:                                               ; preds = %57, %9
  ret void
}

declare dso_local i32 @__isoc99_scanf(i8*, ...) #1

declare dso_local i32 @printf(i8*, ...) #1


!llvm.module.flags = !{!0}
!llvm.ident = !{!1}

!0 = !{i32 1, !"wchar_size", i32 4}
!1 = !{!"clang version 10.0.0-4ubuntu1 "}
